Certificate:
    Data:
        Version: 3 (0x2)
        Serial Number: 2048 (0x800)
    Signature Algorithm: ecdsa-with-SHA384
        Issuer: O=Beijing VRV Software Corporation Limited., OU=Mobile Interconnection Center, CN=VRV ec-ssl CA - G1
        Validity
            Not Before: Sep 10 11:05:10 2018
            Not After : Sep 11 11:05:10 2018
        Subject: C=CN, ST=Beijing, O=Beijing VRV Software Corporation Limited., OU=/it?c=linkdood, CN=linkdood\xE6\xA0\x87\xE5\x87\x86 \xE7\x89\x88
        Subject Public Key Info:
            Public Key Algorithm: id-ecPublicKey
                Public-Key: (256 bit)
                pub:
                    04:17:5a:56:6b:66:a2:15:03:88:73:dc:fa:fb:60:
                    25:d6:aa:5d:87:52:d3:5c:5c:43:06:a1:28:d0:05:
                    03:5b:98:77:ed:cc:cc:1c:31:a8:54:c6:6d:62:1c:
                    d7:24:48:73:e6:54:26:fb:31:7d:bf:49:db:35:ba:
                    51:56:37:8f:65
                ASN1 OID: prime256v1
                NIST CURVE: P-256
        X509v3 extensions:
            X509v3 Basic Constraints: 
                CA:FALSE
            X509v3 Key Usage: 
                Digital Signature, Non Repudiation, Key Encipherment
            1.2.156.300352.101.5: 
                .(Beijing VRV Software Corporation Limited
            1.2.156.300352.101.4: 
                .&com.vrv.im,com.vrv.emm,im.linkdood.com
            1.2.156.300352.101.6: 
                .;9B:D9:09:F3:A7:01:55:79:AD:26:BA:39:5F:93:6F:32:1B:17:B8:D1
            1.2.156.300352.101.3: 
                ...cn.vrv.im-inhouse,cn.vrv.im,com.vrv.emm,com.Malaysia.Linkdood,cn.vrv.im-inhouse.LinkDDExtension,cn.vrv.im.Extension,com.vrv.emm.Extenstion,com.Malaysia.Linkdood.Extension
            1.2.156.300352.101.1: 
                ..linkdood
            1.2.156.300352.101.2: 
                .)Beijing VRV Software Corporation Limited.
    Signature Algorithm: ecdsa-with-SHA384
         30:46:02:21:00:d2:8a:c2:f6:57:87:91:1f:d1:c0:75:ea:92:
         81:fc:f2:e1:4c:ea:7a:74:39:4e:76:64:dc:d0:31:5f:cf:e1:
         4a:02:21:00:af:5a:28:a2:38:54:b3:4b:23:25:57:c0:0e:af:
         ff:5c:23:d3:f9:ef:28:30:ed:6f:81:4d:23:57:2c:e0:a6:96
-----BEGIN CERTIFICATE-----
MIID2zCCA4CgAwIBAgICCAAwCgYIKoZIzj0EAwMweTEyMDAGA1UECgwpQmVpamlu
ZyBWUlYgU29mdHdhcmUgQ29ycG9yYXRpb24gTGltaXRlZC4xJjAkBgNVBAsMHU1v
YmlsZSBJbnRlcmNvbm5lY3Rpb24gQ2VudGVyMRswGQYDVQQDDBJWUlYgZWMtc3Ns
IENBIC0gRzEwIBgOMjAxODA5MTAxMTA1MTAYDjIwMTgwOTExMTEwNTEwMIGJMQsw
CQYDVQQGEwJDTjEQMA4GA1UECAwHQmVpamluZzEyMDAGA1UECgwpQmVpamluZyBW
UlYgU29mdHdhcmUgQ29ycG9yYXRpb24gTGltaXRlZC4xFzAVBgNVBAsMDi9pdD9j
PWxpbmtkb29kMRswGQYDVQQDDBJsaW5rZG9vZOagh+WHhiDniYgwWTATBgcqhkjO
PQIBBggqhkjOPQMBBwNCAAQXWlZrZqIVA4hz3Pr7YCXWql2HUtNcXEMGoSjQBQNb
mHftzMwcMahUxm1iHNckSHPmVCb7MX2/Sds1ulFWN49lo4IB4zCCAd8wCQYDVR0T
BAIwADALBgNVHQ8EBAMCBeAwNgYIKoEckqpAZQUEKgwoQmVpamluZyBWUlYgU29m
dHdhcmUgQ29ycG9yYXRpb24gTGltaXRlZDA0BggqgRySqkBlBAQoDCZjb20udnJ2
LmltLGNvbS52cnYuZW1tLGltLmxpbmtkb29kLmNvbTBJBggqgRySqkBlBgQ9DDs5
QjpEOTowOTpGMzpBNzowMTo1NTo3OTpBRDoyNjpCQTozOTo1Rjo5Mzo2RjozMjox
QjoxNzpCODpEMTCBugYIKoEckqpAZQMEga0Mgapjbi52cnYuaW0taW5ob3VzZSxj
bi52cnYuaW0sY29tLnZydi5lbW0sY29tLk1hbGF5c2lhLkxpbmtkb29kLGNuLnZy
di5pbS1pbmhvdXNlLkxpbmtEREV4dGVuc2lvbixjbi52cnYuaW0uRXh0ZW5zaW9u
LGNvbS52cnYuZW1tLkV4dGVuc3Rpb24sY29tLk1hbGF5c2lhLkxpbmtkb29kLkV4
dGVuc2lvbjAWBggqgRySqkBlAQQKDAhsaW5rZG9vZDA3BggqgRySqkBlAgQrDClC
ZWlqaW5nIFZSViBTb2Z0d2FyZSBDb3Jwb3JhdGlvbiBMaW1pdGVkLjAKBggqhkjO
PQQDAwNJADBGAiEA0orC9leHkR/RwHXqkoH88uFM6np0OU52ZNzQMV/P4UoCIQCv
WiiiOFSzSyMlV8AOr/9cI9P57ygw7W+BTSNXLOCmlg==
-----END CERTIFICATE-----
Certificate:
    Data:
        Version: 3 (0x2)
        Serial Number: 1 (0x1)
    Signature Algorithm: ecdsa-with-SHA512
        Issuer: O=Beijing VRV Software Corporation Limited., OU=Mobile Interconnection Center, CN=VRV ec-ssl Primary Certification Authority
        Validity
            Not Before: Oct 27 14:15:21 2017 GMT
            Not After : Oct 23 14:15:21 2035 GMT
        Subject: O=Beijing VRV Software Corporation Limited., OU=Mobile Interconnection Center, CN=VRV ec-ssl CA - G1
        Subject Public Key Info:
            Public Key Algorithm: id-ecPublicKey
                Public-Key: (256 bit)
                pub: 
                    04:cc:9d:41:44:15:4b:c5:39:6b:a4:91:08:93:d3:
                    3f:df:78:16:5b:45:7e:14:b7:66:f8:55:61:48:92:
                    ff:06:10:2e:df:51:ed:af:d0:69:a7:73:6f:79:a2:
                    d6:a5:9a:eb:f3:23:68:65:74:f9:13:d3:16:2d:71:
                    d8:c3:1b:c4:af
                ASN1 OID: prime256v1
        X509v3 extensions:
            X509v3 Subject Key Identifier: 
                70:7D:F3:FC:0B:22:59:80:DA:E5:DB:10:24:84:DC:D8:4F:42:AD:06
            X509v3 Authority Key Identifier: 
                keyid:B5:9D:9F:36:F0:BC:21:DE:49:69:DE:AE:D8:4F:BC:CC:41:5A:1C:66

            X509v3 Basic Constraints: critical
                CA:TRUE
            X509v3 Key Usage: critical
                Digital Signature, Certificate Sign, CRL Sign
    Signature Algorithm: ecdsa-with-SHA512
         30:46:02:21:00:f6:38:ac:98:ec:93:6b:2d:44:27:8c:e1:ee:
         45:35:80:61:1a:c7:26:30:7a:d4:83:5c:eb:e9:d3:36:cd:81:
         27:02:21:00:e4:2b:ff:9d:b0:1a:88:79:d0:60:98:f9:ad:98:
         b0:a8:01:b0:81:bd:64:25:a7:bb:37:3b:02:1f:2d:d2:5f:24
-----BEGIN CERTIFICATE-----
MIICXjCCAgOgAwIBAgIBATAKBggqhkjOPQQDBDCBkTEyMDAGA1UECgwpQmVpamlu
ZyBWUlYgU29mdHdhcmUgQ29ycG9yYXRpb24gTGltaXRlZC4xJjAkBgNVBAsMHU1v
YmlsZSBJbnRlcmNvbm5lY3Rpb24gQ2VudGVyMTMwMQYDVQQDDCpWUlYgZWMtc3Ns
IFByaW1hcnkgQ2VydGlmaWNhdGlvbiBBdXRob3JpdHkwHhcNMTcxMDI3MTQxNTIx
WhcNMzUxMDIzMTQxNTIxWjB5MTIwMAYDVQQKDClCZWlqaW5nIFZSViBTb2Z0d2Fy
ZSBDb3Jwb3JhdGlvbiBMaW1pdGVkLjEmMCQGA1UECwwdTW9iaWxlIEludGVyY29u
bmVjdGlvbiBDZW50ZXIxGzAZBgNVBAMMElZSViBlYy1zc2wgQ0EgLSBHMTBZMBMG
ByqGSM49AgEGCCqGSM49AwEHA0IABMydQUQVS8U5a6SRCJPTP994FltFfhS3ZvhV
YUiS/wYQLt9R7a/Qaadzb3mi1qWa6/MjaGV0+RPTFi1x2MMbxK+jYzBhMB0GA1Ud
DgQWBBRwffP8CyJZgNrl2xAkhNzYT0KtBjAfBgNVHSMEGDAWgBS1nZ828Lwh3klp
3q7YT7zMQVocZjAPBgNVHRMBAf8EBTADAQH/MA4GA1UdDwEB/wQEAwIBhjAKBggq
hkjOPQQDBANJADBGAiEA9jismOyTay1EJ4zh7kU1gGEaxyYwetSDXOvp0zbNgScC
IQDkK/+dsBqIedBgmPmtmLCoAbCBvWQlp7s3OwIfLdJfJA==
-----END CERTIFICATE-----
