Certificate:
    Data:
        Version: 3 (0x2)
        Serial Number: 2176126 (0x21347e)
    Signature Algorithm: ecdsa-with-SHA384
        Issuer: O=Beijing VRV Software Corporation Limited., OU=Mobile Interconnection Center, CN=VRV ec-ssl CA - G1
        Validity
            Not Before: Jun 28 08:04:20 2020 GMT
            Not After : Jun 26 08:04:20 2030 GMT
        Subject: C=CN, ST=Beijing, O=zhqtest123(zhqtest123), OU=/st?unl=10000000&mct=1&cp=est, CN=zhqtest.linkdood.cn
        Subject Public Key Info:
            Public Key Algorithm: id-ecPublicKey
                Public-Key: (256 bit)
                pub:
                    04:60:18:85:11:76:c1:93:ae:15:42:b5:73:da:d7:
                    f9:73:7c:0d:33:05:f5:92:c5:4b:8e:2e:20:c4:e1:
                    1d:c1:63:e2:ec:d2:f5:7c:48:05:c3:e7:db:43:84:
                    bc:84:fb:e1:52:7a:f2:f2:c6:22:25:5b:8a:47:a5:
                    0b:64:f3:9f:f4
                ASN1 OID: prime256v1
                NIST CURVE: P-256
        X509v3 extensions:
            X509v3 Basic Constraints: 
                CA:FALSE
            X509v3 Key Usage: 
                Digital Signature, Non Repudiation, Key Encipherment
            1.2.3.4.8.9.4.26: 
                ../st?unl=10000000&mct=1&cp=est
            1.2.3.4.8.9.4.25: 
                ..zhqtest123(zhqtest123)
            1.2.156.300352.102.5: 
                ..
    Signature Algorithm: ecdsa-with-SHA384
         30:45:02:21:00:bc:43:c0:8e:13:00:12:e9:86:53:9f:27:5d:
         0b:99:d6:01:b7:64:05:f0:87:6f:dd:e4:ed:33:c6:91:7e:ca:
         d3:02:20:2c:0b:13:78:b6:16:50:8b:9e:77:af:ba:06:a1:79:
         f6:e4:f6:a3:7d:57:37:62:77:bd:9b:fb:01:38:fd:94:c8
-----BEGIN CERTIFICATE-----
MIICcDCCAhagAwIBAgIDITR+MAoGCCqGSM49BAMDMHkxMjAwBgNVBAoMKUJlaWpp
bmcgVlJWIFNvZnR3YXJlIENvcnBvcmF0aW9uIExpbWl0ZWQuMSYwJAYDVQQLDB1N
b2JpbGUgSW50ZXJjb25uZWN0aW9uIENlbnRlcjEbMBkGA1UEAwwSVlJWIGVjLXNz
bCBDQSAtIEcxMCIYDzIwMjAwNjI4MDgwNDIwWhgPMjAzMDA2MjYwODA0MjBaMIGG
MQswCQYDVQQGEwJDTjEQMA4GA1UECAwHQmVpamluZzEfMB0GA1UECgwWemhxdGVz
dDEyMyh6aHF0ZXN0MTIzKTEmMCQGA1UECwwdL3N0P3VubD0xMDAwMDAwMCZtY3Q9
MSZjcD1lc3QxHDAaBgNVBAMME3pocXRlc3QubGlua2Rvb2QuY24wWTATBgcqhkjO
PQIBBggqhkjOPQMBBwNCAARgGIURdsGTrhVCtXPa1/lzfA0zBfWSxUuOLiDE4R3B
Y+Ls0vV8SAXD59tDhLyE++FSevLyxiIlW4pHpQtk85/0o3sweTAJBgNVHRMEAjAA
MAsGA1UdDwQEAwIF4DAqBgcqAwQICQQaBB8MHS9zdD91bmw9MTAwMDAwMDAmbWN0
PTEmY3A9ZXN0MCMGByoDBAgJBBkEGAwWemhxdGVzdDEyMyh6aHF0ZXN0MTIzKTAO
BggqgRySqkBmBQQCDAAwCgYIKoZIzj0EAwMDSAAwRQIhALxDwI4TABLphlOfJ10L
mdYBt2QF8Idv3eTtM8aRfsrTAiAsCxN4thZQi553r7oGoXn25PajfVc3Yne9m/sB
OP2UyA==
-----END CERTIFICATE-----
Certificate:
    Data:
        Version: 3 (0x2)
        Serial Number: 1 (0x1)
    Signature Algorithm: ecdsa-with-SHA512
        Issuer: O=Beijing VRV Software Corporation Limited., OU=Mobile Interconnection Center, CN=VRV ec-ssl Primary Certification Authority
        Validity
            Not Before: Oct 27 14:15:21 2017 GMT
            Not After : Oct 23 14:15:21 2035 GMT
        Subject: O=Beijing VRV Software Corporation Limited., OU=Mobile Interconnection Center, CN=VRV ec-ssl CA - G1
        Subject Public Key Info:
            Public Key Algorithm: id-ecPublicKey
                Public-Key: (256 bit)
                pub: 
                    04:cc:9d:41:44:15:4b:c5:39:6b:a4:91:08:93:d3:
                    3f:df:78:16:5b:45:7e:14:b7:66:f8:55:61:48:92:
                    ff:06:10:2e:df:51:ed:af:d0:69:a7:73:6f:79:a2:
                    d6:a5:9a:eb:f3:23:68:65:74:f9:13:d3:16:2d:71:
                    d8:c3:1b:c4:af
                ASN1 OID: prime256v1
        X509v3 extensions:
            X509v3 Subject Key Identifier: 
                70:7D:F3:FC:0B:22:59:80:DA:E5:DB:10:24:84:DC:D8:4F:42:AD:06
            X509v3 Authority Key Identifier: 
                keyid:B5:9D:9F:36:F0:BC:21:DE:49:69:DE:AE:D8:4F:BC:CC:41:5A:1C:66

            X509v3 Basic Constraints: critical
                CA:TRUE
            X509v3 Key Usage: critical
                Digital Signature, Certificate Sign, CRL Sign
    Signature Algorithm: ecdsa-with-SHA512
         30:46:02:21:00:f6:38:ac:98:ec:93:6b:2d:44:27:8c:e1:ee:
         45:35:80:61:1a:c7:26:30:7a:d4:83:5c:eb:e9:d3:36:cd:81:
         27:02:21:00:e4:2b:ff:9d:b0:1a:88:79:d0:60:98:f9:ad:98:
         b0:a8:01:b0:81:bd:64:25:a7:bb:37:3b:02:1f:2d:d2:5f:24
-----BEGIN CERTIFICATE-----
MIICXjCCAgOgAwIBAgIBATAKBggqhkjOPQQDBDCBkTEyMDAGA1UECgwpQmVpamlu
ZyBWUlYgU29mdHdhcmUgQ29ycG9yYXRpb24gTGltaXRlZC4xJjAkBgNVBAsMHU1v
YmlsZSBJbnRlcmNvbm5lY3Rpb24gQ2VudGVyMTMwMQYDVQQDDCpWUlYgZWMtc3Ns
IFByaW1hcnkgQ2VydGlmaWNhdGlvbiBBdXRob3JpdHkwHhcNMTcxMDI3MTQxNTIx
WhcNMzUxMDIzMTQxNTIxWjB5MTIwMAYDVQQKDClCZWlqaW5nIFZSViBTb2Z0d2Fy
ZSBDb3Jwb3JhdGlvbiBMaW1pdGVkLjEmMCQGA1UECwwdTW9iaWxlIEludGVyY29u
bmVjdGlvbiBDZW50ZXIxGzAZBgNVBAMMElZSViBlYy1zc2wgQ0EgLSBHMTBZMBMG
ByqGSM49AgEGCCqGSM49AwEHA0IABMydQUQVS8U5a6SRCJPTP994FltFfhS3ZvhV
YUiS/wYQLt9R7a/Qaadzb3mi1qWa6/MjaGV0+RPTFi1x2MMbxK+jYzBhMB0GA1Ud
DgQWBBRwffP8CyJZgNrl2xAkhNzYT0KtBjAfBgNVHSMEGDAWgBS1nZ828Lwh3klp
3q7YT7zMQVocZjAPBgNVHRMBAf8EBTADAQH/MA4GA1UdDwEB/wQEAwIBhjAKBggq
hkjOPQQDBANJADBGAiEA9jismOyTay1EJ4zh7kU1gGEaxyYwetSDXOvp0zbNgScC
IQDkK/+dsBqIedBgmPmtmLCoAbCBvWQlp7s3OwIfLdJfJA==
-----END CERTIFICATE-----
